; Function Attrs: mustprogress nofree norecurse nosync nounwind willreturn memory(argmem: read) uwtable
define dso_local noundef range(i64 -2305843009213693952, 2305843009213693952) i64 @_ZNK4Luau15BytecodeBuilder19getInstructionCountEv(ptr noundef nonnull readonly align 8 captures(none) dereferenceable(840) %0) local_unnamed_addr #5 align 2 {
  %2 = getelementptr inbounds nuw i8, ptr %0, i64 40
  %3 = getelementptr inbounds nuw i8, ptr %0, i64 48
  %4 = load ptr, ptr %3, align 8, !tbaa !132
  %5 = load ptr, ptr %2, align 8, !tbaa !131
  %6 = ptrtoint ptr %4 to i64
  %7 = ptrtoint ptr %5 to i64
  %8 = sub i64 %6, %7
  %9 = ashr exact i64 %8, 2
  ret i64 %9
}